target datalayout = "e-m:e-p270:32:32-p271:32:32-p272:64:64-i64:64-i128:128-f80:128-n8:16:32:64-S128"
target triple = "x86_64-pc-linux-gnu"

%struct.gres_state = type { i32, i32, ptr, ptr, i32 }
%struct.gres_job_state = type { i32, ptr, i16, i16, i64, i64, i64, i64, i64, i16, i16, i64, i32, ptr, ptr, ptr, ptr, i32, i64, i32, ptr, ptr, ptr, ptr, ptr, ptr }
%struct.sock_gres = type { ptr, ptr, i64, ptr, ptr, ptr, i64, i32, i64, i64, i8 }

; Function Attrs: nounwind uwtable
define dso_local i32 @gres_select_util_get_task_limit(ptr noundef %0) #0 {
  %2 = alloca ptr, align 8
  %3 = alloca ptr, align 8
  %4 = alloca ptr, align 8
  %5 = alloca i32, align 4
  %6 = alloca i64, align 8
  %7 = alloca ptr, align 8
  %8 = alloca i32, align 4
  store ptr %0, ptr %2, align 8
  call void @llvm.lifetime.start.p0(i64 8, ptr %3) #3
  call void @llvm.lifetime.start.p0(i64 8, ptr %4) #3
  call void @llvm.lifetime.start.p0(i64 4, ptr %5) #3
  store i32 -2, ptr %5, align 4
  call void @llvm.lifetime.start.p0(i64 8, ptr %6) #3
  %9 = load ptr, ptr %2, align 8
  %10 = call ptr @slurm_list_iterator_create(ptr noundef %9)
  store ptr %10, ptr %3, align 8
  br label %11

11:                                               ; preds = %48, %46, %1
  %12 = load ptr, ptr %3, align 8
  %13 = call ptr @slurm_list_next(ptr noundef %12)
  store ptr %13, ptr %4, align 8
  %14 = icmp ne ptr %13, null
  br i1 %14, label %15, label %49

15:                                               ; preds = %11
  call void @llvm.lifetime.start.p0(i64 8, ptr %7) #3
  %16 = load ptr, ptr %4, align 8
  %17 = getelementptr inbounds nuw %struct.sock_gres, ptr %16, i32 0, i32 4
  %18 = load ptr, ptr %17, align 8
  %19 = getelementptr inbounds nuw %struct.gres_state, ptr %18, i32 0, i32 2
  %20 = load ptr, ptr %19, align 8
  store ptr %20, ptr %7, align 8
  %21 = load ptr, ptr %7, align 8
  %22 = getelementptr inbounds nuw %struct.gres_job_state, ptr %21, i32 0, i32 7
  %23 = load i64, ptr %22, align 8
  %24 = icmp eq i64 %23, 0
  br i1 %24, label %25, label %26

25:                                               ; preds = %15
  store i32 2, ptr %8, align 4
  br label %46, !llvm.loop !20

26:                                               ; preds = %15
  %27 = load ptr, ptr %4, align 8
  %28 = getelementptr inbounds nuw %struct.sock_gres, ptr %27, i32 0, i32 8
  %29 = load i64, ptr %28, align 8
  %30 = load ptr, ptr %7, align 8
  %31 = getelementptr inbounds nuw %struct.gres_job_state, ptr %30, i32 0, i32 7
  %32 = load i64, ptr %31, align 8
  %33 = udiv i64 %29, %32
  store i64 %33, ptr %6, align 8
  %34 = load i32, ptr %5, align 4
  %35 = zext i32 %34 to i64
  %36 = load i64, ptr %6, align 8
  %37 = icmp ult i64 %35, %36
  br i1 %37, label %38, label %41

38:                                               ; preds = %26
  %39 = load i32, ptr %5, align 4
  %40 = zext i32 %39 to i64
  br label %43

41:                                               ; preds = %26
  %42 = load i64, ptr %6, align 8
  br label %43

43:                                               ; preds = %41, %38
  %44 = phi i64 [ %40, %38 ], [ %42, %41 ]
  %45 = trunc i64 %44 to i32
  store i32 %45, ptr %5, align 4
  store i32 0, ptr %8, align 4
  br label %46

46:                                               ; preds = %43, %25
  call void @llvm.lifetime.end.p0(i64 8, ptr %7) #3
  %47 = load i32, ptr %8, align 4
  switch i32 %47, label %52 [
    i32 0, label %48
    i32 2, label %11
  ]

48:                                               ; preds = %46
  br label %11, !llvm.loop !20

49:                                               ; preds = %11
  %50 = load ptr, ptr %3, align 8
  call void @slurm_list_iterator_destroy(ptr noundef %50)
  %51 = load i32, ptr %5, align 4
  store i32 1, ptr %8, align 4
  call void @llvm.lifetime.end.p0(i64 8, ptr %6) #3
  call void @llvm.lifetime.end.p0(i64 4, ptr %5) #3
  call void @llvm.lifetime.end.p0(i64 8, ptr %4) #3
  call void @llvm.lifetime.end.p0(i64 8, ptr %3) #3
  ret i32 %51

52:                                               ; preds = %46
  unreachable
}