; Function Attrs: nounwind uwtable
define dso_local range(i32 0, -1) i32 @gres_select_util_get_task_limit(ptr noundef %0) local_unnamed_addr #0 {
  %2 = tail call ptr @slurm_list_iterator_create(ptr noundef %0) #4
  %3 = tail call ptr @slurm_list_next(ptr noundef %2) #4
  %.not13 = icmp eq ptr %3, null
  br i1 %.not13, label %._crit_edge, label %.lr.ph

.lr.ph:                                           ; preds = %1, %19
  %4 = phi ptr [ %20, %19 ], [ %3, %1 ]
  %.014 = phi i32 [ %.1, %19 ], [ -2, %1 ]
  %5 = getelementptr inbounds nuw i8, ptr %4, i64 32
  %6 = load ptr, ptr %5, align 8
  %7 = getelementptr inbounds nuw i8, ptr %6, i64 8
  %8 = load ptr, ptr %7, align 8
  %9 = getelementptr inbounds nuw i8, ptr %8, i64 48
  %10 = load i64, ptr %9, align 8
  %11 = icmp eq i64 %10, 0
  br i1 %11, label %19, label %12, !llvm.loop !18

12:                                               ; preds = %.lr.ph
  %13 = getelementptr inbounds nuw i8, ptr %4, i64 64
  %14 = load i64, ptr %13, align 8
  %15 = udiv i64 %14, %10
  %16 = zext i32 %.014 to i64
  %17 = tail call i64 @llvm.umin.i64(i64 %15, i64 %16)
  %18 = trunc nuw i64 %17 to i32
  br label %19

19:                                               ; preds = %.lr.ph, %12
  %.1 = phi i32 [ %18, %12 ], [ %.014, %.lr.ph ]
  %20 = tail call ptr @slurm_list_next(ptr noundef %2) #4
  %.not = icmp eq ptr %20, null
  br i1 %.not, label %._crit_edge, label %.lr.ph

._crit_edge:                                      ; preds = %19, %1
  %.0.lcssa = phi i32 [ -2, %1 ], [ %.1, %19 ]
  tail call void @slurm_list_iterator_destroy(ptr noundef %2) #4
  ret i32 %.0.lcssa
}